target datalayout = "e-m:e-p270:32:32-p271:32:32-p272:64:64-i64:64-i128:128-f80:128-n8:16:32:64-S128"
target triple = "x86_64-pc-linux-gnu"

%struct.SurfaceDataRasInfo = type { %struct.SurfaceDataBounds, ptr, i32, i32, i32, i32, ptr, ptr, ptr, ptr, ptr, ptr, i32, %union.anon.0 }
%struct.SurfaceDataBounds = type { i32, i32, i32, i32 }
%union.anon.0 = type { ptr, [56 x i8] }
%struct.ImageRef = type { ptr, ptr, i32, i32, i32, i32, i32, i32 }

; Function Attrs: nounwind uwtable
define hidden void @AnyShortDrawGlyphList(ptr noundef %0, ptr noundef %1, i32 noundef %2, i32 noundef %3, i32 noundef %4, i32 noundef %5, i32 noundef %6, i32 noundef %7, i32 noundef %8, ptr noundef %9, ptr noundef %10) #0 {
  %12 = alloca ptr, align 8
  %13 = alloca ptr, align 8
  %14 = alloca i32, align 4
  %15 = alloca i32, align 4
  %16 = alloca i32, align 4
  %17 = alloca i32, align 4
  %18 = alloca i32, align 4
  %19 = alloca i32, align 4
  %20 = alloca i32, align 4
  %21 = alloca ptr, align 8
  %22 = alloca ptr, align 8
  %23 = alloca i32, align 4
  %24 = alloca i32, align 4
  %25 = alloca ptr, align 8
  %26 = alloca ptr, align 8
  %27 = alloca i32, align 4
  %28 = alloca i32, align 4
  %29 = alloca i32, align 4
  %30 = alloca i32, align 4
  %31 = alloca i32, align 4
  %32 = alloca i32, align 4
  %33 = alloca i32, align 4
  %34 = alloca i32, align 4
  store ptr %0, ptr %12, align 8
  store ptr %1, ptr %13, align 8
  store i32 %2, ptr %14, align 4
  store i32 %3, ptr %15, align 4
  store i32 %4, ptr %16, align 4
  store i32 %5, ptr %17, align 4
  store i32 %6, ptr %18, align 4
  store i32 %7, ptr %19, align 4
  store i32 %8, ptr %20, align 4
  store ptr %9, ptr %21, align 8
  store ptr %10, ptr %22, align 8
  %35 = load ptr, ptr %12, align 8
  %36 = getelementptr inbounds %struct.SurfaceDataRasInfo, ptr %35, i32 0, i32 4
  %37 = load i32, ptr %36, align 8
  store i32 %37, ptr %24, align 4
  store i32 0, ptr %23, align 4
  br label %38

38:                                               ; preds = %195, %11
  %39 = load i32, ptr %23, align 4
  %40 = load i32, ptr %14, align 4
  %41 = icmp slt i32 %39, %40
  br i1 %41, label %42, label %198

42:                                               ; preds = %38
  %43 = load ptr, ptr %13, align 8
  %44 = load i32, ptr %23, align 4
  %45 = sext i32 %44 to i64
  %46 = getelementptr inbounds %struct.ImageRef, ptr %43, i64 %45
  %47 = getelementptr inbounds %struct.ImageRef, ptr %46, i32 0, i32 1
  %48 = load ptr, ptr %47, align 8
  store ptr %48, ptr %26, align 8
  %49 = load ptr, ptr %26, align 8
  %50 = icmp ne ptr %49, null
  br i1 %50, label %52, label %51

51:                                               ; preds = %42
  br label %195

52:                                               ; preds = %42
  %53 = load ptr, ptr %13, align 8
  %54 = load i32, ptr %23, align 4
  %55 = sext i32 %54 to i64
  %56 = getelementptr inbounds %struct.ImageRef, ptr %53, i64 %55
  %57 = getelementptr inbounds %struct.ImageRef, ptr %56, i32 0, i32 2
  %58 = load i32, ptr %57, align 8
  store i32 %58, ptr %27, align 4
  %59 = load ptr, ptr %13, align 8
  %60 = load i32, ptr %23, align 4
  %61 = sext i32 %60 to i64
  %62 = getelementptr inbounds %struct.ImageRef, ptr %59, i64 %61
  %63 = getelementptr inbounds %struct.ImageRef, ptr %62, i32 0, i32 6
  %64 = load i32, ptr %63, align 8
  store i32 %64, ptr %28, align 4
  %65 = load ptr, ptr %13, align 8
  %66 = load i32, ptr %23, align 4
  %67 = sext i32 %66 to i64
  %68 = getelementptr inbounds %struct.ImageRef, ptr %65, i64 %67
  %69 = getelementptr inbounds %struct.ImageRef, ptr %68, i32 0, i32 7
  %70 = load i32, ptr %69, align 4
  store i32 %70, ptr %29, align 4
  %71 = load ptr, ptr %13, align 8
  %72 = load i32, ptr %23, align 4
  %73 = sext i32 %72 to i64
  %74 = getelementptr inbounds %struct.ImageRef, ptr %71, i64 %73
  %75 = getelementptr inbounds %struct.ImageRef, ptr %74, i32 0, i32 4
  %76 = load i32, ptr %75, align 8
  store i32 %76, ptr %30, align 4
  %77 = load ptr, ptr %13, align 8
  %78 = load i32, ptr %23, align 4
  %79 = sext i32 %78 to i64
  %80 = getelementptr inbounds %struct.ImageRef, ptr %77, i64 %79
  %81 = getelementptr inbounds %struct.ImageRef, ptr %80, i32 0, i32 5
  %82 = load i32, ptr %81, align 4
  store i32 %82, ptr %31, align 4
  %83 = load i32, ptr %28, align 4
  %84 = load i32, ptr %30, align 4
  %85 = add nsw i32 %83, %84
  store i32 %85, ptr %32, align 4
  %86 = load i32, ptr %29, align 4
  %87 = load i32, ptr %31, align 4
  %88 = add nsw i32 %86, %87
  store i32 %88, ptr %33, align 4
  %89 = load i32, ptr %28, align 4
  %90 = load i32, ptr %17, align 4
  %91 = icmp slt i32 %89, %90
  br i1 %91, label %92, label %101

92:                                               ; preds = %52
  %93 = load i32, ptr %17, align 4
  %94 = load i32, ptr %28, align 4
  %95 = sub nsw i32 %93, %94
  %96 = mul nsw i32 %95, 1
  %97 = load ptr, ptr %26, align 8
  %98 = sext i32 %96 to i64
  %99 = getelementptr inbounds i8, ptr %97, i64 %98
  store ptr %99, ptr %26, align 8
  %100 = load i32, ptr %17, align 4
  store i32 %100, ptr %28, align 4
  br label %101

101:                                              ; preds = %92, %52
  %102 = load i32, ptr %29, align 4
  %103 = load i32, ptr %18, align 4
  %104 = icmp slt i32 %102, %103
  br i1 %104, label %105, label %115

105:                                              ; preds = %101
  %106 = load i32, ptr %18, align 4
  %107 = load i32, ptr %29, align 4
  %108 = sub nsw i32 %106, %107
  %109 = load i32, ptr %27, align 4
  %110 = mul nsw i32 %108, %109
  %111 = load ptr, ptr %26, align 8
  %112 = sext i32 %110 to i64
  %113 = getelementptr inbounds i8, ptr %111, i64 %112
  store ptr %113, ptr %26, align 8
  %114 = load i32, ptr %18, align 4
  store i32 %114, ptr %29, align 4
  br label %115

115:                                              ; preds = %105, %101
  %116 = load i32, ptr %32, align 4
  %117 = load i32, ptr %19, align 4
  %118 = icmp sgt i32 %116, %117
  br i1 %118, label %119, label %121

119:                                              ; preds = %115
  %120 = load i32, ptr %19, align 4
  store i32 %120, ptr %32, align 4
  br label %121

121:                                              ; preds = %119, %115
  %122 = load i32, ptr %33, align 4
  %123 = load i32, ptr %20, align 4
  %124 = icmp sgt i32 %122, %123
  br i1 %124, label %125, label %127

125:                                              ; preds = %121
  %126 = load i32, ptr %20, align 4
  store i32 %126, ptr %33, align 4
  br label %127

127:                                              ; preds = %125, %121
  %128 = load i32, ptr %32, align 4
  %129 = load i32, ptr %28, align 4
  %130 = icmp sle i32 %128, %129
  br i1 %130, label %135, label %131

131:                                              ; preds = %127
  %132 = load i32, ptr %33, align 4
  %133 = load i32, ptr %29, align 4
  %134 = icmp sle i32 %132, %133
  br i1 %134, label %135, label %136

135:                                              ; preds = %131, %127
  br label %195

136:                                              ; preds = %131
  %137 = load i32, ptr %32, align 4
  %138 = load i32, ptr %28, align 4
  %139 = sub nsw i32 %137, %138
  store i32 %139, ptr %30, align 4
  %140 = load i32, ptr %33, align 4
  %141 = load i32, ptr %29, align 4
  %142 = sub nsw i32 %140, %141
  store i32 %142, ptr %31, align 4
  %143 = load ptr, ptr %12, align 8
  %144 = getelementptr inbounds %struct.SurfaceDataRasInfo, ptr %143, i32 0, i32 1
  %145 = load ptr, ptr %144, align 8
  %146 = ptrtoint ptr %145 to i64
  %147 = load i32, ptr %29, align 4
  %148 = sext i32 %147 to i64
  %149 = load i32, ptr %24, align 4
  %150 = sext i32 %149 to i64
  %151 = mul nsw i64 %148, %150
  %152 = load i32, ptr %28, align 4
  %153 = sext i32 %152 to i64
  %154 = mul nsw i64 %153, 2
  %155 = add nsw i64 %151, %154
  %156 = add nsw i64 %146, %155
  %157 = inttoptr i64 %156 to ptr
  store ptr %157, ptr %25, align 8
  br label %158

158:                                              ; preds = %190, %136
  store i32 0, ptr %34, align 4
  br label %159

159:                                              ; preds = %174, %158
  %160 = load ptr, ptr %26, align 8
  %161 = load i32, ptr %34, align 4
  %162 = sext i32 %161 to i64
  %163 = getelementptr inbounds i8, ptr %160, i64 %162
  %164 = load i8, ptr %163, align 1
  %165 = icmp ne i8 %164, 0
  br i1 %165, label %166, label %173

166:                                              ; preds = %159
  %167 = load i32, ptr %15, align 4
  %168 = trunc i32 %167 to i16
  %169 = load ptr, ptr %25, align 8
  %170 = load i32, ptr %34, align 4
  %171 = sext i32 %170 to i64
  %172 = getelementptr inbounds i16, ptr %169, i64 %171
  store i16 %168, ptr %172, align 2
  br label %173

173:                                              ; preds = %166, %159
  br label %174

174:                                              ; preds = %173
  %175 = load i32, ptr %34, align 4
  %176 = add nsw i32 %175, 1
  store i32 %176, ptr %34, align 4
  %177 = load i32, ptr %30, align 4
  %178 = icmp slt i32 %176, %177
  br i1 %178, label %159, label %179, !llvm.loop !23

179:                                              ; preds = %174
  %180 = load ptr, ptr %25, align 8
  %181 = ptrtoint ptr %180 to i64
  %182 = load i32, ptr %24, align 4
  %183 = sext i32 %182 to i64
  %184 = add nsw i64 %181, %183
  %185 = inttoptr i64 %184 to ptr
  store ptr %185, ptr %25, align 8
  %186 = load i32, ptr %27, align 4
  %187 = load ptr, ptr %26, align 8
  %188 = sext i32 %186 to i64
  %189 = getelementptr inbounds i8, ptr %187, i64 %188
  store ptr %189, ptr %26, align 8
  br label %190

190:                                              ; preds = %179
  %191 = load i32, ptr %31, align 4
  %192 = add nsw i32 %191, -1
  store i32 %192, ptr %31, align 4
  %193 = icmp sgt i32 %192, 0
  br i1 %193, label %158, label %194, !llvm.loop !24

194:                                              ; preds = %190
  br label %195

195:                                              ; preds = %194, %135, %51
  %196 = load i32, ptr %23, align 4
  %197 = add nsw i32 %196, 1
  store i32 %197, ptr %23, align 4
  br label %38, !llvm.loop !25

198:                                              ; preds = %38
  ret void
}