; Function Attrs: nofree norecurse nosync nounwind memory(readwrite, inaccessiblemem: none) uwtable
define hidden void @AnyShortDrawGlyphList(ptr nocapture noundef readonly %0, ptr nocapture noundef readonly %1, i32 noundef %2, i32 noundef %3, i32 %4, i32 noundef %5, i32 noundef %6, i32 noundef %7, i32 noundef %8, ptr nocapture readnone %9, ptr nocapture readnone %10) #2 {
  %12 = icmp sgt i32 %2, 0
  br i1 %12, label %.lr.ph, label %._crit_edge

.lr.ph:                                           ; preds = %11
  %13 = getelementptr inbounds i8, ptr %0, i64 32
  %14 = load i32, ptr %13, align 8
  %15 = getelementptr inbounds i8, ptr %0, i64 16
  %16 = sext i32 %14 to i64
  %17 = trunc i32 %3 to i16
  %wide.trip.count93 = zext nneg i32 %2 to i64
  br label %18

18:                                               ; preds = %.lr.ph, %.loopexit
  %indvars.iv90 = phi i64 [ 0, %.lr.ph ], [ %indvars.iv.next91, %.loopexit ]
  %19 = getelementptr inbounds %struct.ImageRef, ptr %1, i64 %indvars.iv90
  %20 = getelementptr inbounds i8, ptr %19, i64 8
  %21 = load ptr, ptr %20, align 8
  %.not = icmp eq ptr %21, null
  br i1 %.not, label %.loopexit, label %22

22:                                               ; preds = %18
  %23 = getelementptr inbounds i8, ptr %19, i64 32
  %24 = load i32, ptr %23, align 8
  %25 = getelementptr inbounds i8, ptr %19, i64 36
  %26 = load i32, ptr %25, align 4
  %27 = getelementptr inbounds i8, ptr %19, i64 24
  %28 = load i32, ptr %27, align 8
  %29 = getelementptr inbounds i8, ptr %19, i64 28
  %30 = load i32, ptr %29, align 4
  %31 = add nsw i32 %28, %24
  %32 = add nsw i32 %30, %26
  %.067 = tail call i32 @llvm.smax.i32(i32 %24, i32 %5)
  %.066 = tail call i32 @llvm.smax.i32(i32 %26, i32 %6)
  %.064 = tail call i32 @llvm.smin.i32(i32 %31, i32 %7)
  %.063 = tail call i32 @llvm.smin.i32(i32 %32, i32 %8)
  %.not84 = icmp sgt i32 %.064, %.067
  %.not85 = icmp sgt i32 %.063, %.066
  %or.cond = select i1 %.not84, i1 %.not85, i1 false
  br i1 %or.cond, label %33, label %.loopexit

33:                                               ; preds = %22
  %34 = getelementptr inbounds i8, ptr %19, i64 16
  %35 = load i32, ptr %34, align 8
  %36 = icmp slt i32 %26, %6
  %37 = icmp slt i32 %24, %5
  %38 = sub nsw i32 %5, %24
  %narrow = select i1 %37, i32 %38, i32 0
  %.069.idx = sext i32 %narrow to i64
  %.069 = getelementptr inbounds i8, ptr %21, i64 %.069.idx
  %39 = sub nsw i32 %6, %26
  %40 = mul nsw i32 %39, %35
  %narrow87 = select i1 %36, i32 %40, i32 0
  %.1.idx = sext i32 %narrow87 to i64
  %.1 = getelementptr inbounds i8, ptr %.069, i64 %.1.idx
  %41 = sub i32 %.064, %.067
  %42 = sub nsw i32 %.063, %.066
  %43 = load ptr, ptr %15, align 8
  %44 = ptrtoint ptr %43 to i64
  %45 = sext i32 %.066 to i64
  %46 = mul nsw i64 %45, %16
  %47 = sext i32 %.067 to i64
  %48 = shl nsw i64 %47, 1
  %49 = add nsw i64 %46, %48
  %50 = add nsw i64 %49, %44
  %51 = sext i32 %35 to i64
  %smax = tail call i32 @llvm.smax.i32(i32 %41, i32 1)
  %wide.trip.count = zext nneg i32 %smax to i64
  br label %52

52:                                               ; preds = %59, %33
  %.070.in = phi i64 [ %50, %33 ], [ %60, %59 ]
  %.2 = phi ptr [ %.1, %33 ], [ %61, %59 ]
  %.065 = phi i32 [ %42, %33 ], [ %62, %59 ]
  %.070 = inttoptr i64 %.070.in to ptr
  br label %53

53:                                               ; preds = %58, %52
  %indvars.iv = phi i64 [ %indvars.iv.next, %58 ], [ 0, %52 ]
  %54 = getelementptr inbounds i8, ptr %.2, i64 %indvars.iv
  %55 = load i8, ptr %54, align 1
  %.not86 = icmp eq i8 %55, 0
  br i1 %.not86, label %58, label %56

56:                                               ; preds = %53
  %57 = getelementptr inbounds i16, ptr %.070, i64 %indvars.iv
  store i16 %17, ptr %57, align 2
  br label %58

58:                                               ; preds = %53, %56
  %indvars.iv.next = add nuw nsw i64 %indvars.iv, 1
  %exitcond.not = icmp eq i64 %indvars.iv.next, %wide.trip.count
  br i1 %exitcond.not, label %59, label %53, !llvm.loop !23

59:                                               ; preds = %58
  %60 = add nsw i64 %.070.in, %16
  %61 = getelementptr inbounds i8, ptr %.2, i64 %51
  %62 = add nsw i32 %.065, -1
  %63 = icmp sgt i32 %.065, 1
  br i1 %63, label %52, label %.loopexit, !llvm.loop !24

.loopexit:                                        ; preds = %59, %22, %18
  %indvars.iv.next91 = add nuw nsw i64 %indvars.iv90, 1
  %exitcond94.not = icmp eq i64 %indvars.iv.next91, %wide.trip.count93
  br i1 %exitcond94.not, label %._crit_edge, label %18, !llvm.loop !25

._crit_edge:                                      ; preds = %.loopexit, %11
  ret void
}